; Function Attrs: nounwind sspstrong uwtable
define internal zeroext i1 @virtio_queue_host_notifier_aio_poll(ptr noundef captures(none) %opaque) #0 {
entry:
  %desc = getelementptr i8, ptr %opaque, i64 -100
  %0 = load i64, ptr %desc, align 8
  %tobool.not = icmp eq i64 %0, 0
  br i1 %tobool.not, label %land.end, label %land.rhs

land.rhs:                                         ; preds = %entry
  %add.ptr = getelementptr i8, ptr %opaque, i64 -116
  %call = tail call i32 @virtio_queue_empty(ptr noundef %add.ptr)
  %tobool1.not = icmp eq i32 %call, 0
  br label %land.end

land.end:                                         ; preds = %land.rhs, %entry
  %1 = phi i1 [ false, %entry ], [ %tobool1.not, %land.rhs ]
  ret i1 %1
}